; Function Attrs: null_pointer_is_valid sspstrong uwtable
define void @register_ber_oid_syntax(ptr noundef %0, ptr noundef %1, ptr noundef %2) local_unnamed_addr #0 {
  %.not = icmp eq ptr %2, null
  br i1 %.not, label %11, label %4

4:                                                ; preds = %3
  %5 = load i8, ptr %2, align 1
  %.not9 = icmp eq i8 %5, 0
  br i1 %.not9, label %11, label %6

6:                                                ; preds = %4
  %7 = load ptr, ptr @syntax_table, align 8
  %8 = tail call noalias ptr @g_strdup(ptr noundef %0)
  %9 = tail call noalias ptr @g_strdup(ptr noundef nonnull %2)
  %10 = tail call i32 @g_hash_table_insert(ptr noundef %7, ptr noundef %8, ptr noundef %9)
  br label %11

11:                                               ; preds = %6, %4, %3
  %.not10 = icmp eq ptr %1, null
  br i1 %.not10, label %15, label %12

12:                                               ; preds = %11
  %13 = load i8, ptr %1, align 1
  %.not11 = icmp eq i8 %13, 0
  br i1 %.not11, label %15, label %14

14:                                               ; preds = %12
  tail call void @oid_add_from_string(ptr noundef nonnull %1, ptr noundef %0)
  br label %15

15:                                               ; preds = %14, %12, %11
  ret void
}